Certificate:
    Data:
        Version: 3 (0x2)
        Serial Number: 34953 (0x8889)
    Signature Algorithm: sha256WithRSAEncryption
        Issuer: C=FI, ST=Keski-Suomi, L=Kajaani O=Kamk, OU=IT faculty, CN=iotkamk.lab/emailAddress=iot.kamk@kamk.lab
        Validity
            Not Before: Oct 14 12:37:04 2017 GMT
            Not After : Oct 12 12:37:04 2027 GMT
        Subject: C=FI, ST=Kainuu, O=Kamk, OU=IT faculty, CN=oceanic.kamkiot.lab
        Subject Public Key Info:
            Public Key Algorithm: rsaEncryption
                Public-Key: (2048 bit)
                Modulus:
                    00:af:42:8e:87:b6:40:0a:17:90:c1:2b:29:e1:94:
                    93:15:4b:4e:a3:3d:16:2e:9e:1d:37:9c:ef:fd:a0:
                    7b:dc:9c:02:ce:24:01:27:52:31:fe:43:1c:2e:77:
                    fd:38:a5:b3:11:8e:16:2e:38:f1:ee:00:ba:d8:29:
                    79:21:df:88:08:cf:7c:76:ed:15:f4:d1:59:44:0f:
                    92:f2:43:06:64:6c:bf:ea:ac:20:80:10:25:cd:f7:
                    50:08:43:15:ea:26:99:f4:ce:98:6a:09:55:d1:a5:
                    d4:7f:aa:07:2b:16:df:47:77:d2:3f:8e:df:2d:1f:
                    26:19:12:a5:f5:b0:43:62:20:88:a0:da:dd:5e:b7:
                    58:18:c6:0d:5a:57:c7:05:40:eb:ea:ea:d8:38:74:
                    7e:21:89:cb:a7:66:a2:b1:ec:30:4a:2e:77:52:95:
                    2d:b5:9b:84:77:2c:be:35:15:e5:ad:26:ab:d0:f0:
                    d5:0c:4f:b0:e1:ba:00:df:22:6e:e7:34:2b:41:b3:
                    2b:19:b2:a8:d7:c4:21:15:67:63:73:3c:f5:34:07:
                    db:3b:06:a0:21:a0:20:40:8f:f5:73:d8:2f:d6:d8:
                    0b:b8:c8:ca:e8:1b:23:65:9c:a3:3d:b5:5d:3c:f6:
                    4a:cd:a1:28:27:69:3c:d9:c5:5e:80:c7:62:91:f3:
                    17:7d
                Exponent: 65537 (0x10001)
        X509v3 extensions:
            X509v3 Basic Constraints: 
                CA:FALSE
            Netscape Comment: 
                OpenSSL Generated Certificate
            X509v3 Subject Key Identifier: 
                50:02:E4:AC:8D:06:5F:3D:11:88:BF:F4:14:32:09:DC:33:D7:78:82
            X509v3 Authority Key Identifier: 
                keyid:AA:5A:87:58:5F:8E:06:08:4B:9A:B8:5B:5E:92:63:E6:A4:97:0F:1A

    Signature Algorithm: sha256WithRSAEncryption
         96:3d:25:96:e4:d4:be:f4:72:a3:69:60:70:c2:57:2b:e6:72:
         d0:80:53:c6:19:8f:56:7e:b1:cf:83:9a:21:09:0c:f3:fd:4e:
         b7:40:d8:a5:fe:ce:42:b8:99:cc:49:64:f6:3a:cb:6d:c3:01:
         22:b8:33:f8:8f:1a:df:f9:db:4b:85:a9:d3:88:f6:d1:6f:87:
         11:77:68:27:98:ba:2b:2d:e3:17:fd:e1:ab:ca:e1:0f:35:9f:
         39:41:b9:1c:e7:5d:01:fb:d8:25:2e:68:63:92:93:5e:a0:ed:
         7d:e8:ae:b3:59:b3:25:4b:07:b6:ee:6a:f3:c3:b9:8b:8a:f1:
         67:e6:4c:0c:f3:06:5f:16:a9:fe:c1:68:d9:9c:95:13:3e:4f:
         6b:ea:83:4e:f4:18:6f:fd:e5:37:7c:a7:a3:8d:21:2a:e9:9e:
         71:b9:7f:d2:e5:ff:e8:17:ae:97:59:59:da:4f:48:1a:3f:46:
         02:67:0f:b9:1c:18:b4:a4:39:41:bc:9f:25:01:ce:98:0c:b9:
         e4:c8:9e:89:35:e2:c1:ad:23:2d:a0:1c:eb:b3:dc:dc:36:bb:
         b1:59:04:40:00:e3:b3:54:d7:6a:30:a4:60:4f:d2:80:96:7c:
         a2:bd:c5:8d:e3:30:a0:46:3f:64:92:67:46:55:2d:06:28:27:
         f5:73:c3:fa:b8:9d:aa:99:bb:72:a8:ee:64:82:85:58:10:29:
         db:81:e3:8f:e4:41:28:8f:83:0e:7e:ab:ca:9a:6c:37:83:11:
         99:bb:ca:7c:ba:c9:e0:93:83:4a:54:ed:a6:b4:fa:7b:59:55:
         c3:ef:8b:3d:ae:c3:3c:f8:e7:37:e6:50:ed:99:3d:15:92:9b:
         08:fa:96:38:b3:95:54:51:6b:91:19:3b:0d:86:bc:76:1c:fe:
         c6:1d:df:96:bb:40:cb:7e:98:62:2f:4a:bf:77:4c:2f:a5:ff:
         43:f3:68:b5:bd:f0:18:76:bd:ab:e9:db:bf:4c:18:5b:74:fb:
         06:94:89:02:26:0a:6e:e4:8f:7c:2a:7d:e0:37:91:97:1c:5b:
         ca:ef:52:ad:7f:4f:52:b5:06:c8:5a:f0:38:e6:31:18:05:a2:
         53:7a:43:2d:d9:f0:d0:9e:9a:6d:19:ec:10:78:cf:b9:98:f3:
         5f:5e:6b:f0:c3:57:23:18:de:cd:65:a8:06:2f:16:78:47:c6:
         a2:7b:ec:7e:2d:c0:69:7b:f0:79:53:85:57:8d:83:57:2b:af:
         eb:68:41:55:dd:91:af:2c:92:44:b4:4b:c4:34:af:14:77:3a:
         74:bd:8b:d1:58:6b:e1:ba:3c:d4:45:97:88:b4:18:2c:0b:30:
         73:30:c0:b7:d0:f0:4b:dd
-----BEGIN CERTIFICATE-----
MIIE9jCCAt6gAwIBAgIDAIiJMA0GCSqGSIb3DQEBCwUAMIGWMQswCQYDVQQGEwJG
STEUMBIGA1UECAwLS2Vza2ktU3VvbWkxEjAQBgNVBAcMCUp5dmFza3lsYTEMMAoG
A1UECgwDSllVMRMwEQYDVQQLDApJVCBmYWN1bHR5MRcwFQYDVQQDDA50aWVzMzI3
Lmp5dS5maTEhMB8GCSqGSIb3DQEJARYSdGllczMyN0B0aW0uanl1LmZpMB4XDTE3
MTAxNDEyMzcwNFoXDTI3MTAxMjEyMzcwNFowZzELMAkGA1UEBhMCRkkxFDASBgNV
BAgMC0tlc2tpLVN1b21pMQwwCgYDVQQKDANKWVUxEzARBgNVBAsMCklUIGZhY3Vs
dHkxHzAdBgNVBAMMFm9jZWFuaWMudGllczMyNy5qeXUuZmkwggEiMA0GCSqGSIb3
DQEBAQUAA4IBDwAwggEKAoIBAQCvQo6HtkAKF5DBKynhlJMVS06jPRYunh03nO/9
oHvcnALOJAEnUjH+Qxwud/04pbMRjhYuOPHuALrYKXkh34gIz3x27RX00VlED5Ly
QwZkbL/qrCCAECXN91AIQxXqJpn0zphqCVXRpdR/qgcrFt9Hd9I/jt8tHyYZEqX1
sENiIIig2t1et1gYxg1aV8cFQOvq6tg4dH4hicunZqKx7DBKLndSlS21m4R3LL41
FeWtJqvQ8NUMT7DhugDfIm7nNCtBsysZsqjXxCEVZ2NzPPU0B9s7BqAhoCBAj/Vz
2C/W2Au4yMroGyNlnKM9tV089krNoSgnaTzZxV6Ax2KR8xd9AgMBAAGjezB5MAkG
A1UdEwQCMAAwLAYJYIZIAYb4QgENBB8WHU9wZW5TU0wgR2VuZXJhdGVkIENlcnRp
ZmljYXRlMB0GA1UdDgQWBBRQAuSsjQZfPRGIv/QUMgncM9d4gjAfBgNVHSMEGDAW
gBSqWodYX44GCEuauFtekmPmpJcPGjANBgkqhkiG9w0BAQsFAAOCAgEAlj0lluTU
vvRyo2lgcMJXK+Zy0IBTxhmPVn6xz4OaIQkM8/1Ot0DYpf7OQriZzElk9jrLbcMB
Irgz+I8a3/nbS4Wp04j20W+HEXdoJ5i6Ky3jF/3hq8rhDzWfOUG5HOddAfvYJS5o
Y5KTXqDtfeius1mzJUsHtu5q88O5i4rxZ+ZMDPMGXxap/sFo2ZyVEz5Pa+qDTvQY
b/3lN3yno40hKumecbl/0uX/6Beul1lZ2k9IGj9GAmcPuRwYtKQ5QbyfJQHOmAy5
5MieiTXiwa0jLaAc67Pc3Da7sVkEQADjs1TXajCkYE/SgJZ8or3FjeMwoEY/ZJJn
RlUtBign9XPD+ridqpm7cqjuZIKFWBAp24Hjj+RBKI+DDn6ryppsN4MRmbvKfLrJ
4JODSlTtprT6e1lVw++LPa7DPPjnN+ZQ7Zk9FZKbCPqWOLOVVFFrkRk7DYa8dhz+
xh3flrtAy36YYi9Kv3dML6X/Q/Notb3wGHa9q+nbv0wYW3T7BpSJAiYKbuSPfCp9
4DeRlxxbyu9SrX9PUrUGyFrwOOYxGAWiU3pDLdnw0J6abRnsEHjPuZjzX15r8MNX
IxjezWWoBi8WeEfGonvsfi3AaXvweVOFV42DVyuv62hBVd2RryySRLRLxDSvFHc6
dL2L0Vhr4bo81EWXiLQYLAswczDAt9DwS90=
-----END CERTIFICATE-----
-----BEGIN RSA PRIVATE KEY-----
MIIEogIBAAKCAQEAr0KOh7ZACheQwSsp4ZSTFUtOoz0WLp4dN5zv/aB73JwCziQB
J1Ix/kMcLnf9OKWzEY4WLjjx7gC62Cl5Id+ICM98du0V9NFZRA+S8kMGZGy/6qwg
gBAlzfdQCEMV6iaZ9M6YaglV0aXUf6oHKxbfR3fSP47fLR8mGRKl9bBDYiCIoNrd
XrdYGMYNWlfHBUDr6urYOHR+IYnLp2aisewwSi53UpUttZuEdyy+NRXlrSar0PDV
DE+w4boA3yJu5zQrQbMrGbKo18QhFWdjczz1NAfbOwagIaAgQI/1c9gv1tgLuMjK
6BsjZZyjPbVdPPZKzaEoJ2k82cVegMdikfMXfQIDAQABAoIBABUVYKga2KFeLF/Q
nX0xrnAFWzRwCNca1lD2ZDiSsdPcQMojsq/UR4da82zzqlbCOESIX0q4NwJ2vAN9
GcFlbqwAqex0oQuOk7qIVRknzwENxBirFE3To3ifo9UanOxKMIMux08aSGSsGmAx
SCN64OlsFLLosRhwgtjJUYW46qJHLIGUHFldzvdBRDH3hxsgStn9k6/MlK8RJE4W
j0EqIdTT0G26juTPx73xrmvpb5NM2dje71S3A4tJZWC8QtWhahahFG3QApuLiJL0
t9R2JrTQ7cE+LNfO3BPslW3oHrx47ZQ3JraAXVXxTf0S+Ojt/vkrnu06J72dwCgR
ImbvLoECgYEA5tsNIyuexXu/+eYDRMk3YPX9xEUiVCXfwi9TIvouvpy18B30bMxT
unbnplNx+oUbALO0Xp5Z1Q6nB5PflB4H2icJuQRf8XZsAz8G+oyGgSmc0eegeOj+
5BPKSxkA3lPrIPCtcuCiUhFbq49KxLXC382zrXyP6W5XiUMQ2E9XvjkCgYEAwllU
vk7SKkhVEBozOUinzmwD4gfVddiqk7CcvfDX+QzAcVXH9UZR5ui2/TQe70nuaExb
wghyBMr9pr+2mDliW35PNRL4kEzAzHMakmzyncRLAGxWwl4LvjpCLfnEmCYR3gQW
1S7bRkdwgczHI2BmuZsvESyydZYcum0UGxPtY2UCgYBawuhpWW70qXCSqVHDq3Bw
WIZKsfuLJdDRIZYH/GCAZFBLdRtx4utQNgthIxF+svIo1n4lbRBYaYhVvFd8fkoM
BKkX6pZl8m8I37C4tKL1CQ00oWI/5yq/NOClodDrmAarTrSCo7ptlZF64707lVJm
dxMbNAvIdK9JsepfgOI4UQKBgHmmbPMKZ2bsC8Keg72xisgcuHl9KdIwIuV7QUFr
ReSwZK0MYrNWpuGAfToUq+BgSIikczMLEkOJxCfiDKtQEA7xCydPjqLUSEIxMkrB
Q0QZoFDNf6j+MR+LW+1nT/Vkrv5nVNtwDvT4tqWoxmWQa/x19Iotji8oHSdcK5+f
Y5I5AoGAE+mPZRpOoHvFxt8RH7QnO1Yhug4s1I4d8LpONhqiZGlf7p4uMMnTonuW
ZHXIp5T1SUxLs0ySB7UefgQX1eC/vVnHlh8iPng7JSbrMHzxi0T5/UYVzKWuV8LU
rq3F0y1Qpl0dR0T852yqtykrWRKCFIoYA2hwDEly9gE55JiMcmo=
-----END RSA PRIVATE KEY-----
