Certificate:
    Data:
        Version: 3 (0x2)
        Serial Number: 34952 (0x8888)
    Signature Algorithm: sha256WithRSAEncryption
        Issuer: C=FI, ST=Keski-Suomi, L=Kajaani O=Kamk, OU=IT faculty, CN=iotkamk.lab/emailAddress=iot.kamk@kamk.lab
        Validity
            Not Before: Oct 14 12:33:46 2017 GMT
            Not After : Oct 12 12:33:46 2027 GMT
        Subject: C=FI, ST=Kainuu, O=Kaamk, OU=IT faculty, CN=pfsense.localdomain
        Subject Public Key Info:
            Public Key Algorithm: rsaEncryption
                Public-Key: (2048 bit)
                Modulus:
                    00:93:22:13:d4:99:a6:b4:f2:85:ba:f1:a5:13:77:
                    c6:a9:74:f7:8c:1e:6c:4a:8b:a0:c7:57:de:4e:3d:
                    2b:b1:d6:55:6c:5a:cd:b9:5f:51:cc:14:c7:28:4c:
                    4c:f9:88:23:a8:71:78:81:47:67:db:5f:71:2f:45:
                    ba:64:b4:df:76:b7:d5:8d:2d:06:73:93:fa:c2:f9:
                    b2:18:25:2e:d6:96:32:43:c7:79:28:7d:84:0e:93:
                    54:d5:50:8a:ef:ef:1d:3e:3d:e6:86:13:cd:34:7b:
                    f3:81:5f:89:b7:29:b9:45:59:9a:9c:0d:19:22:d8:
                    84:04:84:e1:7c:cb:79:c6:73:92:2d:69:d6:80:4b:
                    72:a6:a3:65:17:27:41:a9:5b:ac:4c:69:aa:31:88:
                    dc:92:c7:d4:46:37:df:9a:eb:34:fe:f4:f2:8b:b4:
                    b2:0a:fd:13:9e:3a:43:e7:ab:6c:82:a7:27:08:c0:
                    6f:de:9b:9c:07:4a:12:54:67:d0:00:56:1f:5c:f4:
                    bd:90:c1:3b:65:58:c4:b1:cd:2a:6d:90:b1:42:f8:
                    1e:98:c9:e4:9f:9d:83:c9:98:11:f9:a5:4e:71:57:
                    8d:46:9e:26:e9:1b:73:3b:e0:4f:94:fb:dc:4d:ab:
                    ea:e9:5a:20:cf:1a:f4:24:cf:18:f0:b9:f9:87:2c:
                    f7:4b
                Exponent: 65537 (0x10001)
        X509v3 extensions:
            X509v3 Basic Constraints: 
                CA:FALSE
            Netscape Comment: 
                OpenSSL Generated Certificate
            X509v3 Subject Key Identifier: 
                8E:98:47:7E:46:95:91:C7:29:88:3C:D8:93:96:67:11:9A:F3:67:3E
            X509v3 Authority Key Identifier: 
                keyid:AA:5A:87:58:5F:8E:06:08:4B:9A:B8:5B:5E:92:63:E6:A4:97:0F:1A

    Signature Algorithm: sha256WithRSAEncryption
         5a:39:c8:11:4f:56:0f:cb:0b:94:db:a1:5c:ef:c6:31:2d:1a:
         09:38:fc:d9:8a:fc:2e:76:26:8b:7c:76:11:be:bf:64:2c:72:
         a5:e4:d6:70:b5:4b:35:de:4a:95:8a:96:ee:1c:ce:4d:63:0b:
         1c:1f:23:71:7e:9c:fb:7d:cf:50:fe:cc:ec:1f:31:f6:d0:cf:
         73:d3:af:bd:13:b1:3e:45:91:3e:08:bd:25:8c:6e:a9:82:bc:
         88:64:b1:70:b7:7b:d5:5e:c5:a6:e0:81:f8:4c:6f:3b:57:d7:
         c1:3d:37:c3:9f:73:99:63:b0:ed:1d:f0:d9:5d:62:06:a2:7a:
         58:f5:de:63:e0:d0:4e:a3:e1:85:1e:14:c8:04:70:fd:07:15:
         a0:48:33:e5:c9:1a:10:3f:1d:47:fc:6b:a2:c1:d4:d0:66:4a:
         42:c3:ab:c5:e8:f4:d3:5d:ef:c5:7d:5b:e4:cb:2d:56:01:98:
         5e:ff:a2:e0:fd:02:eb:2e:3b:2a:95:da:29:56:0c:3a:19:22:
         e9:d6:89:de:85:3e:45:f8:b1:b4:5d:17:41:58:11:8e:7a:1f:
         8f:9b:a1:1c:5a:20:e2:8a:80:a4:83:28:c4:55:e4:5e:fc:74:
         05:6c:0b:20:4c:0c:c9:e7:7f:d0:1a:dc:83:91:76:09:2e:d1:
         87:9c:6c:30:ba:77:99:15:ef:92:2f:4e:2b:d8:a7:4d:15:2b:
         7a:f6:af:ad:89:e8:9d:45:33:59:90:eb:33:11:0c:1d:83:65:
         2f:eb:c7:4c:a2:a6:94:4a:3b:06:7d:68:4e:ac:d1:d6:60:67:
         9c:c2:3e:be:1a:27:40:c6:80:05:a2:2b:bd:7a:c4:b8:ee:c2:
         0a:c5:7b:28:2f:45:2d:ad:ea:1b:57:7f:d7:5e:aa:95:d6:bc:
         dd:30:2f:52:2b:09:07:62:57:cf:94:61:f8:52:00:b7:87:26:
         0e:3a:33:16:f3:fa:0e:47:a2:a7:0c:6a:13:29:d1:27:63:a4:
         5d:40:8b:b0:05:f5:58:39:95:09:4e:8c:66:aa:f8:0c:02:1e:
         5c:56:cf:62:50:3c:bf:f0:31:0e:8f:93:5f:47:d8:29:ad:d2:
         fb:9d:de:c8:43:05:b5:f5:f0:16:43:11:b7:a6:9f:2a:01:eb:
         7f:ab:fb:67:70:19:0a:da:6c:1e:54:74:b0:7c:a1:3c:e1:93:
         b3:a5:7c:7e:a2:f1:7a:87:9a:7c:99:6a:e8:c5:4c:4b:90:0a:
         5c:ad:80:05:18:69:26:35:53:c4:18:6a:0d:7c:bb:42:b5:7c:
         ba:0c:44:ca:52:90:87:2b:16:68:a0:80:ea:60:66:00:88:8e:
         ab:25:5f:0b:d6:60:d4:af
-----BEGIN CERTIFICATE-----
MIIE8zCCAtugAwIBAgIDAIiIMA0GCSqGSIb3DQEBCwUAMIGWMQswCQYDVQQGEwJG
STEUMBIGA1UECAwLS2Vza2ktU3VvbWkxEjAQBgNVBAcMCUp5dmFza3lsYTEMMAoG
A1UECgwDSllVMRMwEQYDVQQLDApJVCBmYWN1bHR5MRcwFQYDVQQDDA50aWVzMzI3
Lmp5dS5maTEhMB8GCSqGSIb3DQEJARYSdGllczMyN0B0aW0uanl1LmZpMB4XDTE3
MTAxNDEyMzM0NloXDTI3MTAxMjEyMzM0NlowZDELMAkGA1UEBhMCRkkxFDASBgNV
BAgMC0tlc2tpLVN1b21pMQwwCgYDVQQKDANKWVUxEzARBgNVBAsMCklUIGZhY3Vs
dHkxHDAaBgNVBAMME3Bmc2Vuc2UubG9jYWxkb21haW4wggEiMA0GCSqGSIb3DQEB
AQUAA4IBDwAwggEKAoIBAQCTIhPUmaa08oW68aUTd8apdPeMHmxKi6DHV95OPSux
1lVsWs25X1HMFMcoTEz5iCOocXiBR2fbX3EvRbpktN92t9WNLQZzk/rC+bIYJS7W
ljJDx3kofYQOk1TVUIrv7x0+PeaGE800e/OBX4m3KblFWZqcDRki2IQEhOF8y3nG
c5ItadaAS3Kmo2UXJ0GpW6xMaaoxiNySx9RGN9+a6zT+9PKLtLIK/ROeOkPnq2yC
pycIwG/em5wHShJUZ9AAVh9c9L2QwTtlWMSxzSptkLFC+B6YyeSfnYPJmBH5pU5x
V41GnibpG3M74E+U+9xNq+rpWiDPGvQkzxjwufmHLPdLAgMBAAGjezB5MAkGA1Ud
EwQCMAAwLAYJYIZIAYb4QgENBB8WHU9wZW5TU0wgR2VuZXJhdGVkIENlcnRpZmlj
YXRlMB0GA1UdDgQWBBSOmEd+RpWRxymIPNiTlmcRmvNnPjAfBgNVHSMEGDAWgBSq
WodYX44GCEuauFtekmPmpJcPGjANBgkqhkiG9w0BAQsFAAOCAgEAWjnIEU9WD8sL
lNuhXO/GMS0aCTj82Yr8LnYmi3x2Eb6/ZCxypeTWcLVLNd5KlYqW7hzOTWMLHB8j
cX6c+33PUP7M7B8x9tDPc9OvvROxPkWRPgi9JYxuqYK8iGSxcLd71V7FpuCB+Exv
O1fXwT03w59zmWOw7R3w2V1iBqJ6WPXeY+DQTqPhhR4UyARw/QcVoEgz5ckaED8d
R/xrosHU0GZKQsOrxej0013vxX1b5MstVgGYXv+i4P0C6y47KpXaKVYMOhki6daJ
3oU+RfixtF0XQVgRjnofj5uhHFog4oqApIMoxFXkXvx0BWwLIEwMyed/0Brcg5F2
CS7Rh5xsMLp3mRXvki9OK9inTRUrevavrYnonUUzWZDrMxEMHYNlL+vHTKKmlEo7
Bn1oTqzR1mBnnMI+vhonQMaABaIrvXrEuO7CCsV7KC9FLa3qG1d/116qlda83TAv
UisJB2JXz5Rh+FIAt4cmDjozFvP6DkeipwxqEynRJ2OkXUCLsAX1WDmVCU6MZqr4
DAIeXFbPYlA8v/AxDo+TX0fYKa3S+53eyEMFtfXwFkMRt6afKgHrf6v7Z3AZCtps
HlR0sHyhPOGTs6V8fqLxeoeafJlq6MVMS5AKXK2ABRhpJjVTxBhqDXy7QrV8ugxE
ylKQhysWaKCA6mBmAIiOqyVfC9Zg1K8=
-----END CERTIFICATE-----
-----BEGIN RSA PRIVATE KEY-----
MIIEpAIBAAKCAQEAkyIT1JmmtPKFuvGlE3fGqXT3jB5sSougx1feTj0rsdZVbFrN
uV9RzBTHKExM+YgjqHF4gUdn219xL0W6ZLTfdrfVjS0Gc5P6wvmyGCUu1pYyQ8d5
KH2EDpNU1VCK7+8dPj3mhhPNNHvzgV+Jtym5RVmanA0ZItiEBIThfMt5xnOSLWnW
gEtypqNlFydBqVusTGmqMYjcksfURjffmus0/vTyi7SyCv0TnjpD56tsgqcnCMBv
3pucB0oSVGfQAFYfXPS9kME7ZVjEsc0qbZCxQvgemMnkn52DyZgR+aVOcVeNRp4m
6RtzO+BPlPvcTavq6Vogzxr0JM8Y8Ln5hyz3SwIDAQABAoIBAQCSo6MJ/71DmHaq
FA5HMdgAqf/SWbvqK/Eo3C1G4vZ6friSjol82EBo2siHJEyPYhzP04+boTQkUqI2
0BLuLcqNwriGxLoqVPDWhA/4uo5M9lLQdK0PKtGDyVkCZQykBzepAf6P4IpjZaoS
ZcqWj3IEaUKLhw5nSU2CR4GIZC9RFfldEsmwoyJHCYduH8GBTVt+zAUGkabU3mNl
oJXcUpSOd8kFjga57CR1keq5ykjgRJlGszRn5gFXKV6KSUGhBBOu6wU63imkYrdI
crFESKZBhhvNFE3InRLA3G1L5P/9NtuFQzxhCzAoXI/ziNTfba39n4q9yKve3zKW
ZEKHynTRAoGBAMLNbNygc3jqWrXWlFLoSu2DdIMfa+OTv5/aEdMK/HsNpNsVFEz6
FXOrlq1TuNHs2KrEIrxpklxV+msBL2J2DdDkFJ2wR0PVIHrEVY3q90R6htiOSKQ/
sRDAnvRYdh5Wn4RZ65QthQCj4lu2zpFMgl7Y00deE8hoxDShZw2hMZ8zAoGBAMFa
8oMo3J3KdQCymEm00GbxqHSi4SNoy3YxZc6eCFj7UU8Dzx/CqtOOEy6/ase53ty7
1zaNFGf/n/BN/ymi662IM4gUu0bsj+07APdMSgxWw6kyJA3Iuj+5JKS1azOPdg6/
jzPVH7nUYeUNZ+m+syNZpN3BZIHtO+fHtA4SKieJAoGBAKJ4uwb4O9bpf2aR5XuQ
io22SgLivhU9MWGde6hNTW9EXe7rkdbx7dpfjnhZj5hmtf8XPvFuC8g/XXDJuD+i
vrsuv5MVZxrIMyKxhbmr8zeGCdmsMiHrjT6vqOOatElxbfHxHW6k2H1EMpLT0U2W
RlXc+bpYWJ+Z4asTwuO3Qa/JAoGAdAb+ZgR8NtfJ1ExXpEszj8LOAofHMDdveJJ1
9EHS4oqVJSQ1A2sOlXq5OiE1k3qPKMgzghGwwCOeN1ammragVHbZ7Xv7UbkdOQ9i
KgQGn1blfL+Q8RCV6y1PtuMC3GLnRjxfU4w9yIaQ5CFiTNrZponhrAykIm9YtmKZ
QqRV1XkCgYAkKTApqfVYV4sweMGY9mWhlNfRVni1XG8dn5lB/H5jJHPozrIVLG6W
TtgHKtU5kOAHt0rg4h2DZTg8lUgI7XW75KDlGAgg5p1Et1TxwOtyodcPHusfLD47
g2x4e66jfgZtRrlYmHQyiuceqMySkXSvoqbU6gCzOWvK1/BKzPRYiQ==
-----END RSA PRIVATE KEY-----
